; Function Attrs: mustprogress nounwind uwtable
define hidden void @_ZN20SharedClassPathEntry20init_as_non_existentEPKcP10JavaThread(ptr nocapture noundef nonnull writeonly align 8 dereferenceable(40) %0, ptr nocapture noundef readonly %1, ptr noundef %2) local_unnamed_addr #0 align 2 {
  store i8 3, ptr %0, align 8
  %4 = tail call i64 @strlen(ptr noundef nonnull readonly dereferenceable(1) %1) #26
  %5 = load ptr, ptr @_ZN15ClassLoaderData27_the_null_class_loader_dataE, align 8
  %6 = trunc i64 %4 to i32
  %7 = add i32 %6, 1
  %8 = tail call i32 @llvm.smax.i32(i32 %7, i32 1)
  %narrow.i.i.i.i = add nuw i32 %8, 14
  %9 = lshr i32 %narrow.i.i.i.i, 3
  %10 = zext nneg i32 %9 to i64
  %11 = tail call noundef ptr @_ZN9Metaspace8allocateEP15ClassLoaderDatamN12MetaspaceObj4TypeEP10JavaThread(ptr noundef %5, i64 noundef %10, i32 noundef 2, ptr noundef %2) #25
  %12 = icmp eq ptr %11, null
  br i1 %12, label %_ZN15MetadataFactory9new_arrayIcEEP5ArrayIT_EP15ClassLoaderDataiP10JavaThread.exit.i, label %13

13:                                               ; preds = %3
  store i32 %7, ptr %11, align 4
  br label %_ZN15MetadataFactory9new_arrayIcEEP5ArrayIT_EP15ClassLoaderDataiP10JavaThread.exit.i

_ZN15MetadataFactory9new_arrayIcEEP5ArrayIT_EP15ClassLoaderDataiP10JavaThread.exit.i: ; preds = %13, %3
  %14 = getelementptr inbounds i8, ptr %0, i64 24
  store ptr %11, ptr %14, align 8
  %15 = getelementptr inbounds i8, ptr %2, i64 8
  %16 = load ptr, ptr %15, align 8
  %.not.i = icmp eq ptr %16, null
  br i1 %.not.i, label %17, label %_ZN20SharedClassPathEntry8set_nameEPKcP10JavaThread.exit

17:                                               ; preds = %_ZN15MetadataFactory9new_arrayIcEEP5ArrayIT_EP15ClassLoaderDataiP10JavaThread.exit.i
  %18 = getelementptr inbounds i8, ptr %11, i64 4
  %19 = tail call ptr @strcpy(ptr noundef nonnull dereferenceable(1) %18, ptr noundef nonnull readonly dereferenceable(1) %1) #25
  br label %_ZN20SharedClassPathEntry8set_nameEPKcP10JavaThread.exit

_ZN20SharedClassPathEntry8set_nameEPKcP10JavaThread.exit: ; preds = %_ZN15MetadataFactory9new_arrayIcEEP5ArrayIT_EP15ClassLoaderDataiP10JavaThread.exit.i, %17
  ret void
}